target datalayout = "e-m:e-p270:32:32-p271:32:32-p272:64:64-i64:64-i128:128-f80:128-n8:16:32:64-S128"
target triple = "x86_64-pc-linux-gnu"

%struct._address = type { i32, i32, ptr, ptr }
%struct._radius_attr_info_t = type { ptr, %union._radius_attr_type_t, i32, i8, i8, ptr, ptr, ptr, i32, i32, i32, i32, i32, i32, ptr }
%union._radius_attr_type_t = type { i32 }
%struct._packet_info = type { ptr, ptr, i32, i32, %struct.nstime_t, %struct.nstime_t, %struct.nstime_t, i8, ptr, ptr, ptr, ptr, %struct._address, %struct._address, %struct._address, %struct._address, %struct._address, %struct._address, i32, ptr, i8, [3 x i8], %struct.anon, i32, i32, i32, i32, ptr, i8, ptr, ptr, i16, i16, i32, i32, i16, i32, i32, ptr, ptr, ptr, i8, i8, i16, i16, i16, i32, i16, i16, ptr, ptr, ptr, ptr, ptr, i32, i32 }
%struct.nstime_t = type { i64, i32 }
%struct.anon = type { i8, [3 x i8] }

@.str.8 = private unnamed_addr constant [3 x i8] c"%s\00", align 1

; Function Attrs: null_pointer_is_valid sspstrong uwtable
define hidden void @radius_string(ptr noundef %0, ptr noundef %1, ptr noundef %2, ptr noundef %3, i32 noundef %4, i32 noundef %5, ptr noundef %6) #0 {
  %8 = alloca ptr, align 8
  %9 = alloca ptr, align 8
  %10 = alloca ptr, align 8
  %11 = alloca ptr, align 8
  %12 = alloca i32, align 4
  %13 = alloca i32, align 4
  %14 = alloca ptr, align 8
  store ptr %0, ptr %8, align 8
  store ptr %1, ptr %9, align 8
  store ptr %2, ptr %10, align 8
  store ptr %3, ptr %11, align 8
  store i32 %4, ptr %12, align 4
  store i32 %5, ptr %13, align 4
  store ptr %6, ptr %14, align 8
  %15 = load ptr, ptr %9, align 8
  %16 = load ptr, ptr %8, align 8
  %17 = getelementptr inbounds nuw %struct._radius_attr_info_t, ptr %16, i32 0, i32 9
  %18 = load i32, ptr %17, align 4
  %19 = load ptr, ptr %11, align 8
  %20 = load i32, ptr %12, align 4
  %21 = load i32, ptr %13, align 4
  %22 = call ptr @proto_tree_add_item(ptr noundef %15, i32 noundef %18, ptr noundef %19, i32 noundef %20, i32 noundef %21, i32 noundef 2)
  %23 = load ptr, ptr %14, align 8
  %24 = load ptr, ptr %10, align 8
  %25 = getelementptr inbounds nuw %struct._packet_info, ptr %24, i32 0, i32 51
  %26 = load ptr, ptr %25, align 8
  %27 = load ptr, ptr %11, align 8
  %28 = load i32, ptr %12, align 4
  %29 = load i32, ptr %13, align 4
  %30 = call ptr @tvb_format_text(ptr noundef %26, ptr noundef %27, i32 noundef %28, i32 noundef %29)
  call void (ptr, ptr, ...) @proto_item_append_text(ptr noundef %23, ptr noundef @.str.8, ptr noundef %30)
  ret void
}