; Function Attrs: null_pointer_is_valid sspstrong uwtable
define hidden void @radius_string(ptr noundef readonly captures(none) %0, ptr noundef %1, ptr noundef readonly captures(none) %2, ptr noundef %3, i32 noundef %4, i32 noundef %5, ptr noundef %6) #0 {
  %8 = getelementptr inbounds nuw i8, ptr %0, i64 52
  %9 = load i32, ptr %8, align 4
  %10 = tail call ptr @proto_tree_add_item(ptr noundef %1, i32 noundef %9, ptr noundef %3, i32 noundef %4, i32 noundef %5, i32 noundef 2)
  %11 = getelementptr inbounds nuw i8, ptr %2, i64 408
  %12 = load ptr, ptr %11, align 8
  %13 = tail call ptr @tvb_format_text(ptr noundef %12, ptr noundef %3, i32 noundef %4, i32 noundef %5)
  tail call void (ptr, ptr, ...) @proto_item_append_text(ptr noundef %6, ptr noundef nonnull @.str.8, ptr noundef %13)
  ret void
}